target datalayout = "e-m:e-p270:32:32-p271:32:32-p272:64:64-i64:64-i128:128-f80:128-n8:16:32:64-S128"
target triple = "x86_64-pc-linux-gnu"

@.str.37 = private unnamed_addr constant [19 x i8] c"index out of range\00", align 1

; Function Attrs: mustprogress uwtable
define internal noundef i32 @_ZL11luaB_selectP9lua_State(ptr noundef %0) #0 {
  %2 = alloca i32, align 4
  %3 = alloca ptr, align 8
  %4 = alloca i32, align 4
  %5 = alloca i32, align 4
  store ptr %0, ptr %3, align 8
  %6 = load ptr, ptr %3, align 8
  %7 = call noundef i32 @_Z10lua_gettopP9lua_State(ptr noundef %6)
  store i32 %7, ptr %4, align 4
  %8 = load ptr, ptr %3, align 8
  %9 = call noundef i32 @_Z8lua_typeP9lua_Statei(ptr noundef %8, i32 noundef 1)
  %10 = icmp eq i32 %9, 5
  br i1 %10, label %11, label %21

11:                                               ; preds = %1
  %12 = load ptr, ptr %3, align 8
  %13 = call noundef ptr @_Z13lua_tolstringP9lua_StateiPm(ptr noundef %12, i32 noundef 1, ptr noundef null)
  %14 = load i8, ptr %13, align 1
  %15 = sext i8 %14 to i32
  %16 = icmp eq i32 %15, 35
  br i1 %16, label %17, label %21

17:                                               ; preds = %11
  %18 = load ptr, ptr %3, align 8
  %19 = load i32, ptr %4, align 4
  %20 = sub nsw i32 %19, 1
  call void @_Z15lua_pushintegerP9lua_Statei(ptr noundef %18, i32 noundef %20)
  store i32 1, ptr %2, align 4
  br label %48

21:                                               ; preds = %11, %1
  %22 = load ptr, ptr %3, align 8
  %23 = call noundef i32 @_Z17luaL_checkintegerP9lua_Statei(ptr noundef %22, i32 noundef 1)
  store i32 %23, ptr %5, align 4
  %24 = load i32, ptr %5, align 4
  %25 = icmp slt i32 %24, 0
  br i1 %25, label %26, label %30

26:                                               ; preds = %21
  %27 = load i32, ptr %4, align 4
  %28 = load i32, ptr %5, align 4
  %29 = add nsw i32 %27, %28
  store i32 %29, ptr %5, align 4
  br label %37

30:                                               ; preds = %21
  %31 = load i32, ptr %5, align 4
  %32 = load i32, ptr %4, align 4
  %33 = icmp sgt i32 %31, %32
  br i1 %33, label %34, label %36

34:                                               ; preds = %30
  %35 = load i32, ptr %4, align 4
  store i32 %35, ptr %5, align 4
  br label %36

36:                                               ; preds = %34, %30
  br label %37

37:                                               ; preds = %36, %26
  %38 = load i32, ptr %5, align 4
  %39 = icmp sle i32 1, %38
  br i1 %39, label %40, label %41

40:                                               ; preds = %37
  br label %44

41:                                               ; preds = %37
  %42 = load ptr, ptr %3, align 8
  call void @_Z14luaL_argerrorLP9lua_StateiPKc(ptr noundef %42, i32 noundef 1, ptr noundef @.str.37) #5
  unreachable

43:                                               ; No predecessors!
  br label %44

44:                                               ; preds = %43, %40
  %45 = load i32, ptr %4, align 4
  %46 = load i32, ptr %5, align 4
  %47 = sub nsw i32 %45, %46
  store i32 %47, ptr %2, align 4
  br label %48

48:                                               ; preds = %44, %17
  %49 = load i32, ptr %2, align 4
  ret i32 %49
}