; Function Attrs: mustprogress uwtable
define internal noundef range(i32 -2147483648, 2147483647) i32 @_ZL11luaB_selectP9lua_State(ptr noundef %0) #0 {
  %2 = tail call noundef i32 @_Z10lua_gettopP9lua_State(ptr noundef %0)
  %3 = tail call noundef i32 @_Z8lua_typeP9lua_Statei(ptr noundef %0, i32 noundef 1)
  %4 = icmp eq i32 %3, 5
  br i1 %4, label %5, label %11

5:                                                ; preds = %1
  %6 = tail call noundef ptr @_Z13lua_tolstringP9lua_StateiPm(ptr noundef %0, i32 noundef 1, ptr noundef null)
  %7 = load i8, ptr %6, align 1
  %8 = icmp eq i8 %7, 35
  br i1 %8, label %9, label %11

9:                                                ; preds = %5
  %10 = add nsw i32 %2, -1
  tail call void @_Z15lua_pushintegerP9lua_Statei(ptr noundef %0, i32 noundef %10)
  br label %19

11:                                               ; preds = %5, %1
  %12 = tail call noundef i32 @_Z17luaL_checkintegerP9lua_Statei(ptr noundef %0, i32 noundef 1)
  %13 = icmp slt i32 %12, 0
  %14 = add nsw i32 %12, %2
  %spec.select = tail call i32 @llvm.smin.i32(i32 %12, i32 %2)
  %.0 = select i1 %13, i32 %14, i32 %spec.select
  %15 = icmp sgt i32 %.0, 0
  br i1 %15, label %17, label %16

16:                                               ; preds = %11
  tail call void @_Z14luaL_argerrorLP9lua_StateiPKc(ptr noundef %0, i32 noundef 1, ptr noundef nonnull @.str.37) #9
  unreachable

17:                                               ; preds = %11
  %18 = sub nsw i32 %2, %.0
  br label %19

19:                                               ; preds = %17, %9
  %.016 = phi i32 [ 1, %9 ], [ %18, %17 ]
  ret i32 %.016
}